; ModuleID = '14/958.c'
source_filename = "14/958.c"
target datalayout = "e-m:e-p270:32:32-p271:32:32-p272:64:64-i64:64-f80:128-n8:16:32:64-S128"
target triple = "x86_64-pc-linux-gnu"

%struct.student = type { i32, i32, i32, i32, %struct.student* }

@n = common dso_local global i32 0, align 4
@.str = private unnamed_addr constant [9 x i8] c"%d %d %d\00", align 1
@.str.1 = private unnamed_addr constant [3 x i8] c"%d\00", align 1
@.str.2 = private unnamed_addr constant [7 x i8] c"%d %d\0A\00", align 1

; Function Attrs: noinline nounwind uwtable
define dso_local %struct.student* @creat(i32 %0) #0 {
  %2 = alloca i32, align 4
  %3 = alloca %struct.student*, align 8
  %4 = alloca %struct.student*, align 8
  %5 = alloca %struct.student*, align 8
  store i32 %0, i32* %2, align 4
  store i32 0, i32* @n, align 4
  %6 = call noalias i8* @malloc(i64 100) #3
  %7 = bitcast i8* %6 to %struct.student*
  store %struct.student* %7, %struct.student** %5, align 8
  store %struct.student* %7, %struct.student** %4, align 8
  %8 = load %struct.student*, %struct.student** %4, align 8
  %9 = getelementptr inbounds %struct.student, %struct.student* %8, i32 0, i32 0
  %10 = load %struct.student*, %struct.student** %4, align 8
  %11 = getelementptr inbounds %struct.student, %struct.student* %10, i32 0, i32 1
  %12 = load %struct.student*, %struct.student** %4, align 8
  %13 = getelementptr inbounds %struct.student, %struct.student* %12, i32 0, i32 2
  %14 = call i32 (i8*, ...) @__isoc99_scanf(i8* getelementptr inbounds ([9 x i8], [9 x i8]* @.str, i64 0, i64 0), i32* %9, i32* %11, i32* %13)
  %15 = load %struct.student*, %struct.student** %4, align 8
  store %struct.student* %15, %struct.student** %3, align 8
  br label %16

16:                                               ; preds = %30, %1
  %17 = load i32, i32* @n, align 4
  %18 = load i32, i32* %2, align 4
  %19 = sub nsw i32 %18, 1
  %20 = icmp slt i32 %17, %19
  br i1 %20, label %21, label %41

21:                                               ; preds = %16
  %22 = load i32, i32* @n, align 4
  %23 = add nsw i32 %22, 1
  store i32 %23, i32* @n, align 4
  %24 = load i32, i32* @n, align 4
  %25 = icmp ne i32 %24, 1
  br i1 %25, label %26, label %30

26:                                               ; preds = %21
  %27 = load %struct.student*, %struct.student** %4, align 8
  %28 = load %struct.student*, %struct.student** %5, align 8
  %29 = getelementptr inbounds %struct.student, %struct.student* %28, i32 0, i32 4
  store %struct.student* %27, %struct.student** %29, align 8
  br label %30

30:                                               ; preds = %26, %21
  %31 = load %struct.student*, %struct.student** %4, align 8
  store %struct.student* %31, %struct.student** %5, align 8
  %32 = call noalias i8* @malloc(i64 100) #3
  %33 = bitcast i8* %32 to %struct.student*
  store %struct.student* %33, %struct.student** %4, align 8
  %34 = load %struct.student*, %struct.student** %4, align 8
  %35 = getelementptr inbounds %struct.student, %struct.student* %34, i32 0, i32 0
  %36 = load %struct.student*, %struct.student** %4, align 8
  %37 = getelementptr inbounds %struct.student, %struct.student* %36, i32 0, i32 1
  %38 = load %struct.student*, %struct.student** %4, align 8
  %39 = getelementptr inbounds %struct.student, %struct.student* %38, i32 0, i32 2
  %40 = call i32 (i8*, ...) @__isoc99_scanf(i8* getelementptr inbounds ([9 x i8], [9 x i8]* @.str, i64 0, i64 0), i32* %35, i32* %37, i32* %39)
  br label %16

41:                                               ; preds = %16
  %42 = load %struct.student*, %struct.student** %4, align 8
  %43 = load %struct.student*, %struct.student** %5, align 8
  %44 = getelementptr inbounds %struct.student, %struct.student* %43, i32 0, i32 4
  store %struct.student* %42, %struct.student** %44, align 8
  %45 = load %struct.student*, %struct.student** %4, align 8
  %46 = getelementptr inbounds %struct.student, %struct.student* %45, i32 0, i32 4
  store %struct.student* null, %struct.student** %46, align 8
  %47 = load %struct.student*, %struct.student** %3, align 8
  ret %struct.student* %47
}

; Function Attrs: nounwind
declare dso_local noalias i8* @malloc(i64) #1

declare dso_local i32 @__isoc99_scanf(i8*, ...) #2

; Function Attrs: noinline nounwind uwtable
define dso_local void @main() #0 {
  %1 = alloca i32, align 4
  %2 = alloca i32, align 4
  %3 = alloca %struct.student*, align 8
  %4 = alloca i32, align 4
  %5 = alloca i32, align 4
  %6 = alloca %struct.student*, align 8
  %7 = call i32 (i8*, ...) @__isoc99_scanf(i8* getelementptr inbounds ([3 x i8], [3 x i8]* @.str.1, i64 0, i64 0), i32* %1)
  %8 = load i32, i32* %1, align 4
  %9 = call %struct.student* @creat(i32 %8)
  store %struct.student* %9, %struct.student** %3, align 8
  store i32 0, i32* %2, align 4
  br label %10

10:                                               ; preds = %80, %0
  %11 = load i32, i32* %2, align 4
  %12 = icmp slt i32 %11, 3
  br i1 %12, label %13, label %83

13:                                               ; preds = %10
  store i32 0, i32* %4, align 4
  store i32 0, i32* %5, align 4
  %14 = load %struct.student*, %struct.student** %3, align 8
  store %struct.student* %14, %struct.student** %6, align 8
  br label %15

15:                                               ; preds = %47, %13
  %16 = load %struct.student*, %struct.student** %6, align 8
  %17 = getelementptr inbounds %struct.student, %struct.student* %16, i32 0, i32 2
  %18 = load i32, i32* %17, align 8
  %19 = load %struct.student*, %struct.student** %6, align 8
  %20 = getelementptr inbounds %struct.student, %struct.student* %19, i32 0, i32 1
  %21 = load i32, i32* %20, align 4
  %22 = add nsw i32 %18, %21
  %23 = load i32, i32* %4, align 4
  %24 = icmp sgt i32 %22, %23
  br i1 %24, label %25, label %43

25:                                               ; preds = %15
  %26 = load %struct.student*, %struct.student** %6, align 8
  %27 = getelementptr inbounds %struct.student, %struct.student* %26, i32 0, i32 3
  %28 = load i32, i32* %27, align 4
  %29 = icmp ne i32 %28, -1
  br i1 %29, label %30, label %43

30:                                               ; preds = %25
  %31 = load i32, i32* %5, align 4
  %32 = add nsw i32 %31, 1
  store i32 %32, i32* %5, align 4
  %33 = load i32, i32* %5, align 4
  %34 = load %struct.student*, %struct.student** %6, align 8
  %35 = getelementptr inbounds %struct.student, %struct.student* %34, i32 0, i32 3
  store i32 %33, i32* %35, align 4
  %36 = load %struct.student*, %struct.student** %6, align 8
  %37 = getelementptr inbounds %struct.student, %struct.student* %36, i32 0, i32 2
  %38 = load i32, i32* %37, align 8
  %39 = load %struct.student*, %struct.student** %6, align 8
  %40 = getelementptr inbounds %struct.student, %struct.student* %39, i32 0, i32 1
  %41 = load i32, i32* %40, align 4
  %42 = add nsw i32 %38, %41
  store i32 %42, i32* %4, align 4
  br label %43

43:                                               ; preds = %30, %25, %15
  %44 = load %struct.student*, %struct.student** %6, align 8
  %45 = getelementptr inbounds %struct.student, %struct.student* %44, i32 0, i32 4
  %46 = load %struct.student*, %struct.student** %45, align 8
  store %struct.student* %46, %struct.student** %6, align 8
  br label %47

47:                                               ; preds = %43
  %48 = load %struct.student*, %struct.student** %6, align 8
  %49 = icmp ne %struct.student* %48, null
  br i1 %49, label %15, label %50

50:                                               ; preds = %47
  %51 = load %struct.student*, %struct.student** %3, align 8
  store %struct.student* %51, %struct.student** %6, align 8
  br label %52

52:                                               ; preds = %76, %50
  %53 = load %struct.student*, %struct.student** %6, align 8
  %54 = getelementptr inbounds %struct.student, %struct.student* %53, i32 0, i32 3
  %55 = load i32, i32* %54, align 4
  %56 = load i32, i32* %5, align 4
  %57 = icmp eq i32 %55, %56
  br i1 %57, label %58, label %72

58:                                               ; preds = %52
  %59 = load %struct.student*, %struct.student** %6, align 8
  %60 = getelementptr inbounds %struct.student, %struct.student* %59, i32 0, i32 0
  %61 = load i32, i32* %60, align 8
  %62 = load %struct.student*, %struct.student** %6, align 8
  %63 = getelementptr inbounds %struct.student, %struct.student* %62, i32 0, i32 2
  %64 = load i32, i32* %63, align 8
  %65 = load %struct.student*, %struct.student** %6, align 8
  %66 = getelementptr inbounds %struct.student, %struct.student* %65, i32 0, i32 1
  %67 = load i32, i32* %66, align 4
  %68 = add nsw i32 %64, %67
  %69 = call i32 (i8*, ...) @printf(i8* getelementptr inbounds ([7 x i8], [7 x i8]* @.str.2, i64 0, i64 0), i32 %61, i32 %68)
  %70 = load %struct.student*, %struct.student** %6, align 8
  %71 = getelementptr inbounds %struct.student, %struct.student* %70, i32 0, i32 3
  store i32 -1, i32* %71, align 4
  br label %72

72:                                               ; preds = %58, %52
  %73 = load %struct.student*, %struct.student** %6, align 8
  %74 = getelementptr inbounds %struct.student, %struct.student* %73, i32 0, i32 4
  %75 = load %struct.student*, %struct.student** %74, align 8
  store %struct.student* %75, %struct.student** %6, align 8
  br label %76

76:                                               ; preds = %72
  %77 = load %struct.student*, %struct.student** %6, align 8
  %78 = icmp ne %struct.student* %77, null
  br i1 %78, label %52, label %79

79:                                               ; preds = %76
  br label %80

80:                                               ; preds = %79
  %81 = load i32, i32* %2, align 4
  %82 = add nsw i32 %81, 1
  store i32 %82, i32* %2, align 4
  br label %10

83:                                               ; preds = %10
  ret void
}

declare dso_local i32 @printf(i8*, ...) #2


!llvm.module.flags = !{!0}
!llvm.ident = !{!1}

!0 = !{i32 1, !"wchar_size", i32 4}
!1 = !{!"clang version 10.0.0-4ubuntu1 "}
